target datalayout = "e-m:e-p270:32:32-p271:32:32-p272:64:64-i64:64-i128:128-f80:128-n8:16:32:64-S128"
target triple = "x86_64-pc-linux-gnu"

%struct.buffer_s = type { ptr, i64 }
%struct.Range = type { ptr, i64 }
%struct.RoundBuff_t = type { ptr, i64, i64 }
%struct.ZSTD_customMem = type { ptr, ptr, ptr }
%struct.ZSTDMT_CCtx_s = type { ptr, ptr, ptr, ptr, ptr, %struct.ZSTD_CCtx_params_s, i64, i64, i32, %struct.InBuff_t, %struct.RoundBuff_t, %struct.SerialState, %struct.RSyncState_t, i32, i32, i32, i32, i32, i64, i64, i64, %struct.ZSTD_customMem, ptr, ptr, i8 }
%struct.ZSTD_CCtx_params_s = type { i32, %struct.ZSTD_compressionParameters, %struct.ZSTD_frameParameters, i32, i32, i64, i32, i32, i32, i32, i64, i32, i32, %struct.ldmParams_t, i32, i32, i32, i32, i32, i32, i32, i64, i32, i32, %struct.ZSTD_customMem, i32, i32, ptr, ptr, i32 }
%struct.ZSTD_compressionParameters = type { i32, i32, i32, i32, i32, i32, i32 }
%struct.ZSTD_frameParameters = type { i32, i32, i32 }
%struct.ldmParams_t = type { i32, i32, i32, i32, i32, i32 }
%struct.InBuff_t = type { %struct.Range, %struct.buffer_s, i64 }
%struct.SerialState = type { %union.pthread_mutex_t, %union.pthread_cond_t, %struct.ZSTD_CCtx_params_s, %struct.ldmState_t, %struct.XXH64_state_s, i32, %union.pthread_mutex_t, %union.pthread_cond_t, %struct.ZSTD_window_t }
%struct.ldmState_t = type { %struct.ZSTD_window_t, ptr, i32, ptr, [64 x i64], [64 x %struct.ldmMatchCandidate_t] }
%struct.ldmMatchCandidate_t = type { ptr, i32, i32, ptr }
%struct.XXH64_state_s = type { i64, [4 x i64], [4 x i64], i32, i32, i64 }
%union.pthread_mutex_t = type { %struct.__pthread_mutex_s }
%struct.__pthread_mutex_s = type { i32, i32, i32, i32, i32, i16, i16, %struct.__pthread_internal_list }
%struct.__pthread_internal_list = type { ptr, ptr }
%union.pthread_cond_t = type { %struct.__pthread_cond_s }
%struct.__pthread_cond_s = type { %union.__atomic_wide_counter, %union.__atomic_wide_counter, [2 x i32], [2 x i32], i32, i32, [2 x i32] }
%union.__atomic_wide_counter = type { i64 }
%struct.ZSTD_window_t = type { ptr, ptr, ptr, i32, i32, i32 }
%struct.RSyncState_t = type { i64, i64, i64 }
%struct.ZSTDMT_jobDescription = type { i64, i64, %union.pthread_mutex_t, %union.pthread_cond_t, ptr, ptr, ptr, ptr, %struct.buffer_s, %struct.Range, %struct.Range, i32, i32, i32, %struct.ZSTD_CCtx_params_s, ptr, i64, i64, i32 }
%struct.ZSTDMT_bufferPool_s = type { %union.pthread_mutex_t, i64, i32, i32, %struct.ZSTD_customMem, ptr }

@g_nullBuffer = internal constant %struct.buffer_s zeroinitializer, align 8

; Function Attrs: inlinehint nounwind uwtable
define internal void @ZSTD_customFree(ptr noundef %0, ptr noundef byval(%struct.ZSTD_customMem) align 8 %1) #1 {
  %3 = alloca ptr, align 8
  store ptr %0, ptr %3, align 8, !tbaa !16
  %4 = load ptr, ptr %3, align 8, !tbaa !16
  %5 = icmp ne ptr %4, null
  br i1 %5, label %6, label %19

6:                                                ; preds = %2
  %7 = getelementptr inbounds nuw %struct.ZSTD_customMem, ptr %1, i32 0, i32 1
  %8 = load ptr, ptr %7, align 8, !tbaa !12
  %9 = icmp ne ptr %8, null
  br i1 %9, label %10, label %16

10:                                               ; preds = %6
  %11 = getelementptr inbounds nuw %struct.ZSTD_customMem, ptr %1, i32 0, i32 1
  %12 = load ptr, ptr %11, align 8, !tbaa !12
  %13 = getelementptr inbounds nuw %struct.ZSTD_customMem, ptr %1, i32 0, i32 2
  %14 = load ptr, ptr %13, align 8, !tbaa !72
  %15 = load ptr, ptr %3, align 8, !tbaa !16
  call void %12(ptr noundef %14, ptr noundef %15)
  br label %18

16:                                               ; preds = %6
  %17 = load ptr, ptr %3, align 8, !tbaa !16
  call void @free(ptr noundef %17) #11
  br label %18

18:                                               ; preds = %16, %10
  br label %19

19:                                               ; preds = %18, %2
  ret void
}

; Function Attrs: nounwind uwtable
define internal void @ZSTDMT_releaseBuffer(ptr noundef %0, ptr %1, i64 %2) #0 {
  %4 = alloca %struct.buffer_s, align 8
  %5 = alloca ptr, align 8
  %6 = getelementptr inbounds nuw { ptr, i64 }, ptr %4, i32 0, i32 0
  store ptr %1, ptr %6, align 8
  %7 = getelementptr inbounds nuw { ptr, i64 }, ptr %4, i32 0, i32 1
  store i64 %2, ptr %7, align 8
  store ptr %0, ptr %5, align 8, !tbaa !56
  br label %8

8:                                                ; preds = %3
  br label %9

9:                                                ; preds = %8
  %10 = getelementptr inbounds nuw %struct.buffer_s, ptr %4, i32 0, i32 0
  %11 = load ptr, ptr %10, align 8, !tbaa !61
  %12 = icmp eq ptr %11, null
  br i1 %12, label %13, label %14

13:                                               ; preds = %9
  br label %50

14:                                               ; preds = %9
  %15 = load ptr, ptr %5, align 8, !tbaa !56
  %16 = getelementptr inbounds nuw %struct.ZSTDMT_bufferPool_s, ptr %15, i32 0, i32 0
  %17 = call i32 @pthread_mutex_lock(ptr noundef %16) #11
  %18 = load ptr, ptr %5, align 8, !tbaa !56
  %19 = getelementptr inbounds nuw %struct.ZSTDMT_bufferPool_s, ptr %18, i32 0, i32 3
  %20 = load i32, ptr %19, align 4, !tbaa !175
  %21 = load ptr, ptr %5, align 8, !tbaa !56
  %22 = getelementptr inbounds nuw %struct.ZSTDMT_bufferPool_s, ptr %21, i32 0, i32 2
  %23 = load i32, ptr %22, align 8, !tbaa !60
  %24 = icmp ult i32 %20, %23
  br i1 %24, label %25, label %40

25:                                               ; preds = %14
  %26 = load ptr, ptr %5, align 8, !tbaa !56
  %27 = getelementptr inbounds nuw %struct.ZSTDMT_bufferPool_s, ptr %26, i32 0, i32 5
  %28 = load ptr, ptr %27, align 8, !tbaa !57
  %29 = load ptr, ptr %5, align 8, !tbaa !56
  %30 = getelementptr inbounds nuw %struct.ZSTDMT_bufferPool_s, ptr %29, i32 0, i32 3
  %31 = load i32, ptr %30, align 4, !tbaa !175
  %32 = add i32 %31, 1
  store i32 %32, ptr %30, align 4, !tbaa !175
  %33 = zext i32 %31 to i64
  %34 = getelementptr inbounds nuw %struct.buffer_s, ptr %28, i64 %33
  call void @llvm.memcpy.p0.p0.i64(ptr align 8 %34, ptr align 8 %4, i64 16, i1 false), !tbaa.struct !53
  br label %35

35:                                               ; preds = %25
  br label %36

36:                                               ; preds = %35
  %37 = load ptr, ptr %5, align 8, !tbaa !56
  %38 = getelementptr inbounds nuw %struct.ZSTDMT_bufferPool_s, ptr %37, i32 0, i32 0
  %39 = call i32 @pthread_mutex_unlock(ptr noundef %38) #11
  br label %50

40:                                               ; preds = %14
  %41 = load ptr, ptr %5, align 8, !tbaa !56
  %42 = getelementptr inbounds nuw %struct.ZSTDMT_bufferPool_s, ptr %41, i32 0, i32 0
  %43 = call i32 @pthread_mutex_unlock(ptr noundef %42) #11
  br label %44

44:                                               ; preds = %40
  br label %45

45:                                               ; preds = %44
  %46 = getelementptr inbounds nuw %struct.buffer_s, ptr %4, i32 0, i32 0
  %47 = load ptr, ptr %46, align 8, !tbaa !61
  %48 = load ptr, ptr %5, align 8, !tbaa !56
  %49 = getelementptr inbounds nuw %struct.ZSTDMT_bufferPool_s, ptr %48, i32 0, i32 4
  call void @ZSTD_customFree(ptr noundef %47, ptr noundef byval(%struct.ZSTD_customMem) align 8 %49)
  br label %50

50:                                               ; preds = %45, %36, %13
  ret void
}

; Function Attrs: nounwind uwtable
define internal void @ZSTDMT_releaseAllJobResources(ptr noundef %0) #0 {
  %2 = alloca ptr, align 8
  %3 = alloca i32, align 4
  %4 = alloca %union.pthread_mutex_t, align 8
  %5 = alloca %union.pthread_cond_t, align 8
  store ptr %0, ptr %2, align 8, !tbaa !13
  call void @llvm.lifetime.start.p0(i64 4, ptr %3) #11
  br label %6

6:                                                ; preds = %1
  br label %7

7:                                                ; preds = %6
  br label %8

8:                                                ; preds = %7
  store i32 0, ptr %3, align 4, !tbaa !3
  br label %9

9:                                                ; preds = %67, %8
  %10 = load i32, ptr %3, align 4, !tbaa !3
  %11 = load ptr, ptr %2, align 8, !tbaa !13
  %12 = getelementptr inbounds nuw %struct.ZSTDMT_CCtx_s, ptr %11, i32 0, i32 13
  %13 = load i32, ptr %12, align 8, !tbaa !39
  %14 = icmp ule i32 %10, %13
  br i1 %14, label %15, label %70

15:                                               ; preds = %9
  call void @llvm.lifetime.start.p0(i64 40, ptr %4) #11
  %16 = load ptr, ptr %2, align 8, !tbaa !13
  %17 = getelementptr inbounds nuw %struct.ZSTDMT_CCtx_s, ptr %16, i32 0, i32 1
  %18 = load ptr, ptr %17, align 8, !tbaa !38
  %19 = load i32, ptr %3, align 4, !tbaa !3
  %20 = zext i32 %19 to i64
  %21 = getelementptr inbounds nuw %struct.ZSTDMT_jobDescription, ptr %18, i64 %20
  %22 = getelementptr inbounds nuw %struct.ZSTDMT_jobDescription, ptr %21, i32 0, i32 2
  call void @llvm.memcpy.p0.p0.i64(ptr align 8 %4, ptr align 8 %22, i64 40, i1 false), !tbaa.struct !48
  call void @llvm.lifetime.start.p0(i64 48, ptr %5) #11
  %23 = load ptr, ptr %2, align 8, !tbaa !13
  %24 = getelementptr inbounds nuw %struct.ZSTDMT_CCtx_s, ptr %23, i32 0, i32 1
  %25 = load ptr, ptr %24, align 8, !tbaa !38
  %26 = load i32, ptr %3, align 4, !tbaa !3
  %27 = zext i32 %26 to i64
  %28 = getelementptr inbounds nuw %struct.ZSTDMT_jobDescription, ptr %25, i64 %27
  %29 = getelementptr inbounds nuw %struct.ZSTDMT_jobDescription, ptr %28, i32 0, i32 3
  call void @llvm.memcpy.p0.p0.i64(ptr align 8 %5, ptr align 8 %29, i64 48, i1 false), !tbaa.struct !50
  br label %30

30:                                               ; preds = %15
  br label %31

31:                                               ; preds = %30
  br label %32

32:                                               ; preds = %31
  %33 = load ptr, ptr %2, align 8, !tbaa !13
  %34 = getelementptr inbounds nuw %struct.ZSTDMT_CCtx_s, ptr %33, i32 0, i32 2
  %35 = load ptr, ptr %34, align 8, !tbaa !40
  %36 = load ptr, ptr %2, align 8, !tbaa !13
  %37 = getelementptr inbounds nuw %struct.ZSTDMT_CCtx_s, ptr %36, i32 0, i32 1
  %38 = load ptr, ptr %37, align 8, !tbaa !38
  %39 = load i32, ptr %3, align 4, !tbaa !3
  %40 = zext i32 %39 to i64
  %41 = getelementptr inbounds nuw %struct.ZSTDMT_jobDescription, ptr %38, i64 %40
  %42 = getelementptr inbounds nuw %struct.ZSTDMT_jobDescription, ptr %41, i32 0, i32 8
  %43 = getelementptr inbounds nuw { ptr, i64 }, ptr %42, i32 0, i32 0
  %44 = load ptr, ptr %43, align 8
  %45 = getelementptr inbounds nuw { ptr, i64 }, ptr %42, i32 0, i32 1
  %46 = load i64, ptr %45, align 8
  call void @ZSTDMT_releaseBuffer(ptr noundef %35, ptr %44, i64 %46)
  %47 = load ptr, ptr %2, align 8, !tbaa !13
  %48 = getelementptr inbounds nuw %struct.ZSTDMT_CCtx_s, ptr %47, i32 0, i32 1
  %49 = load ptr, ptr %48, align 8, !tbaa !38
  %50 = load i32, ptr %3, align 4, !tbaa !3
  %51 = zext i32 %50 to i64
  %52 = getelementptr inbounds nuw %struct.ZSTDMT_jobDescription, ptr %49, i64 %51
  call void @llvm.memset.p0.i64(ptr align 8 %52, i8 0, i64 456, i1 false)
  %53 = load ptr, ptr %2, align 8, !tbaa !13
  %54 = getelementptr inbounds nuw %struct.ZSTDMT_CCtx_s, ptr %53, i32 0, i32 1
  %55 = load ptr, ptr %54, align 8, !tbaa !38
  %56 = load i32, ptr %3, align 4, !tbaa !3
  %57 = zext i32 %56 to i64
  %58 = getelementptr inbounds nuw %struct.ZSTDMT_jobDescription, ptr %55, i64 %57
  %59 = getelementptr inbounds nuw %struct.ZSTDMT_jobDescription, ptr %58, i32 0, i32 2
  call void @llvm.memcpy.p0.p0.i64(ptr align 8 %59, ptr align 8 %4, i64 40, i1 false), !tbaa.struct !48
  %60 = load ptr, ptr %2, align 8, !tbaa !13
  %61 = getelementptr inbounds nuw %struct.ZSTDMT_CCtx_s, ptr %60, i32 0, i32 1
  %62 = load ptr, ptr %61, align 8, !tbaa !38
  %63 = load i32, ptr %3, align 4, !tbaa !3
  %64 = zext i32 %63 to i64
  %65 = getelementptr inbounds nuw %struct.ZSTDMT_jobDescription, ptr %62, i64 %64
  %66 = getelementptr inbounds nuw %struct.ZSTDMT_jobDescription, ptr %65, i32 0, i32 3
  call void @llvm.memcpy.p0.p0.i64(ptr align 8 %66, ptr align 8 %5, i64 48, i1 false), !tbaa.struct !50
  call void @llvm.lifetime.end.p0(i64 48, ptr %5) #11
  call void @llvm.lifetime.end.p0(i64 40, ptr %4) #11
  br label %67

67:                                               ; preds = %32
  %68 = load i32, ptr %3, align 4, !tbaa !3
  %69 = add i32 %68, 1
  store i32 %69, ptr %3, align 4, !tbaa !3
  br label %9, !llvm.loop !51

70:                                               ; preds = %9
  %71 = load ptr, ptr %2, align 8, !tbaa !13
  %72 = getelementptr inbounds nuw %struct.ZSTDMT_CCtx_s, ptr %71, i32 0, i32 9
  %73 = getelementptr inbounds nuw %struct.InBuff_t, ptr %72, i32 0, i32 1
  call void @llvm.memcpy.p0.p0.i64(ptr align 8 %73, ptr align 8 @g_nullBuffer, i64 16, i1 false), !tbaa.struct !53
  %74 = load ptr, ptr %2, align 8, !tbaa !13
  %75 = getelementptr inbounds nuw %struct.ZSTDMT_CCtx_s, ptr %74, i32 0, i32 9
  %76 = getelementptr inbounds nuw %struct.InBuff_t, ptr %75, i32 0, i32 2
  store i64 0, ptr %76, align 8, !tbaa !54
  %77 = load ptr, ptr %2, align 8, !tbaa !13
  %78 = getelementptr inbounds nuw %struct.ZSTDMT_CCtx_s, ptr %77, i32 0, i32 17
  store i32 1, ptr %78, align 8, !tbaa !17
  call void @llvm.lifetime.end.p0(i64 4, ptr %3) #11
  ret void
}