; Function Attrs: nounwind uwtable
define internal fastcc void @ZSTDMT_releaseAllJobResources(ptr noundef captures(none) %0) unnamed_addr #0 {
  %.sroa.01 = alloca %struct.__pthread_mutex_s, align 8
  %.sroa.0 = alloca %struct.__pthread_cond_s, align 8
  %2 = getelementptr inbounds nuw i8, ptr %0, i64 3024
  %3 = getelementptr inbounds nuw i8, ptr %0, i64 8
  %4 = getelementptr inbounds nuw i8, ptr %0, i64 16
  br label %5

5:                                                ; preds = %1, %ZSTDMT_releaseBuffer.exit
  %.019 = phi i32 [ 0, %1 ], [ %42, %ZSTDMT_releaseBuffer.exit ]
  call void @llvm.lifetime.start.p0(i64 40, ptr nonnull %.sroa.01)
  %6 = load ptr, ptr %3, align 8, !tbaa !35
  %7 = zext i32 %.019 to i64
  %8 = getelementptr inbounds nuw %struct.ZSTDMT_jobDescription, ptr %6, i64 %7, i32 2
  call void @llvm.memcpy.p0.p0.i64(ptr noundef nonnull align 8 dereferenceable(40) %.sroa.01, ptr noundef nonnull align 8 dereferenceable(40) %8, i64 40, i1 false), !tbaa.struct !49
  call void @llvm.lifetime.start.p0(i64 48, ptr nonnull %.sroa.0)
  %9 = getelementptr inbounds nuw %struct.ZSTDMT_jobDescription, ptr %6, i64 %7, i32 3
  call void @llvm.memcpy.p0.p0.i64(ptr noundef nonnull align 8 dereferenceable(48) %.sroa.0, ptr noundef nonnull align 8 dereferenceable(48) %9, i64 48, i1 false), !tbaa.struct !51
  %10 = load ptr, ptr %4, align 8, !tbaa !37
  %11 = getelementptr inbounds nuw %struct.ZSTDMT_jobDescription, ptr %6, i64 %7, i32 8
  %12 = load ptr, ptr %11, align 8
  %13 = getelementptr inbounds nuw i8, ptr %11, i64 8
  %14 = load i64, ptr %13, align 8
  %15 = icmp eq ptr %12, null
  br i1 %15, label %ZSTDMT_releaseBuffer.exit, label %16

16:                                               ; preds = %5
  %17 = tail call i32 @pthread_mutex_lock(ptr noundef %10) #14
  %18 = getelementptr inbounds nuw i8, ptr %10, i64 52
  %19 = load i32, ptr %18, align 4, !tbaa !52
  %20 = getelementptr inbounds nuw i8, ptr %10, i64 48
  %21 = load i32, ptr %20, align 8, !tbaa !53
  %22 = icmp ult i32 %19, %21
  br i1 %22, label %23, label %30

23:                                               ; preds = %16
  %24 = getelementptr inbounds nuw i8, ptr %10, i64 80
  %25 = load ptr, ptr %24, align 8, !tbaa !54
  %26 = add nuw i32 %19, 1
  store i32 %26, ptr %18, align 4, !tbaa !52
  %27 = zext i32 %19 to i64
  %28 = getelementptr inbounds nuw %struct.buffer_s, ptr %25, i64 %27
  store ptr %12, ptr %28, align 8, !tbaa !12
  %.sroa.4.0..sroa_idx.i = getelementptr inbounds nuw i8, ptr %28, i64 8
  store i64 %14, ptr %.sroa.4.0..sroa_idx.i, align 8, !tbaa !55
  %29 = tail call i32 @pthread_mutex_unlock(ptr noundef nonnull %10) #14
  br label %ZSTDMT_releaseBuffer.exit

30:                                               ; preds = %16
  %31 = tail call i32 @pthread_mutex_unlock(ptr noundef nonnull %10) #14
  %32 = getelementptr i8, ptr %10, i64 64
  %.val.i = load ptr, ptr %32, align 8
  %.not4.i.i = icmp eq ptr %.val.i, null
  br i1 %.not4.i.i, label %35, label %33

33:                                               ; preds = %30
  %34 = getelementptr i8, ptr %10, i64 72
  %.val10.i = load ptr, ptr %34, align 8
  tail call void %.val.i(ptr noundef %.val10.i, ptr noundef nonnull %12) #14
  br label %ZSTDMT_releaseBuffer.exit

35:                                               ; preds = %30
  tail call void @free(ptr noundef nonnull %12) #14
  br label %ZSTDMT_releaseBuffer.exit

ZSTDMT_releaseBuffer.exit:                        ; preds = %5, %23, %33, %35
  %36 = load ptr, ptr %3, align 8, !tbaa !35
  %37 = getelementptr inbounds nuw %struct.ZSTDMT_jobDescription, ptr %36, i64 %7
  tail call void @llvm.memset.p0.i64(ptr noundef nonnull align 8 dereferenceable(456) %37, i8 0, i64 456, i1 false)
  %38 = load ptr, ptr %3, align 8, !tbaa !35
  %39 = getelementptr inbounds nuw %struct.ZSTDMT_jobDescription, ptr %38, i64 %7, i32 2
  call void @llvm.memcpy.p0.p0.i64(ptr noundef nonnull align 8 dereferenceable(40) %39, ptr noundef nonnull align 8 dereferenceable(40) %.sroa.01, i64 40, i1 false), !tbaa.struct !49
  %40 = load ptr, ptr %3, align 8, !tbaa !35
  %41 = getelementptr inbounds nuw %struct.ZSTDMT_jobDescription, ptr %40, i64 %7, i32 3
  call void @llvm.memcpy.p0.p0.i64(ptr noundef nonnull align 8 dereferenceable(48) %41, ptr noundef nonnull align 8 dereferenceable(48) %.sroa.0, i64 48, i1 false), !tbaa.struct !51
  call void @llvm.lifetime.end.p0(i64 48, ptr nonnull %.sroa.0)
  call void @llvm.lifetime.end.p0(i64 40, ptr nonnull %.sroa.01)
  %42 = add i32 %.019, 1
  %43 = load i32, ptr %2, align 8, !tbaa !36
  %.not = icmp ugt i32 %42, %43
  br i1 %.not, label %44, label %5, !llvm.loop !56

44:                                               ; preds = %ZSTDMT_releaseBuffer.exit
  %45 = getelementptr inbounds nuw i8, ptr %0, i64 304
  %46 = getelementptr inbounds nuw i8, ptr %0, i64 3040
  tail call void @llvm.memset.p0.i64(ptr noundef nonnull align 8 dereferenceable(24) %45, i8 0, i64 24, i1 false)
  store i32 1, ptr %46, align 8, !tbaa !13
  ret void
}